; Function Attrs: inlinehint nounwind sspstrong uwtable
define internal fastcc void @trace_handle_cmd_fis_dump(ptr noundef %0, i32 noundef %1, ptr noundef %2) unnamed_addr #8 {
  %4 = alloca %struct.timeval, align 8
  %5 = load i32, ptr @trace_events_enabled_count, align 4
  %.not.i = icmp eq i32 %5, 0
  br i1 %.not.i, label %_nocheck__trace_handle_cmd_fis_dump.exit, label %6, !prof !7

6:                                                ; preds = %3
  %7 = load i16, ptr @_TRACE_HANDLE_CMD_FIS_DUMP_DSTATE, align 2
  %.not5.i = icmp eq i16 %7, 0
  br i1 %.not5.i, label %_nocheck__trace_handle_cmd_fis_dump.exit, label %8

8:                                                ; preds = %6
  %9 = load i32, ptr @qemu_loglevel, align 4
  %10 = and i32 %9, 32768
  %.not6.i = icmp eq i32 %10, 0
  br i1 %.not6.i, label %_nocheck__trace_handle_cmd_fis_dump.exit, label %11

11:                                               ; preds = %8
  %12 = load i8, ptr @message_with_timestamp, align 1, !range !9, !noundef !10
  %13 = trunc nuw i8 %12 to i1
  br i1 %13, label %14, label %20

14:                                               ; preds = %11
  call void @llvm.lifetime.start.p0(i64 16, ptr nonnull %4) #14
  call void @llvm.memset.p0.i64(ptr noundef nonnull align 8 dereferenceable(16) %4, i8 0, i64 16, i1 false), !annotation !11
  %15 = call i32 @gettimeofday(ptr noundef nonnull %4, ptr noundef null) #14
  %16 = tail call i32 @qemu_get_thread_id() #14
  %17 = load i64, ptr %4, align 8
  %18 = getelementptr inbounds nuw i8, ptr %4, i64 8
  %19 = load i64, ptr %18, align 8
  tail call void (ptr, ...) @qemu_log(ptr noundef nonnull @.str.118, i32 noundef %16, i64 noundef %17, i64 noundef %19, ptr noundef %0, i32 noundef %1, ptr noundef %2) #14
  call void @llvm.lifetime.end.p0(i64 16, ptr nonnull %4) #14
  br label %_nocheck__trace_handle_cmd_fis_dump.exit

20:                                               ; preds = %11
  tail call void (ptr, ...) @qemu_log(ptr noundef nonnull @.str.119, ptr noundef %0, i32 noundef %1, ptr noundef %2) #14
  br label %_nocheck__trace_handle_cmd_fis_dump.exit

_nocheck__trace_handle_cmd_fis_dump.exit:         ; preds = %3, %6, %8, %14, %20
  ret void
}